target datalayout = "e-m:e-p270:32:32-p271:32:32-p272:64:64-i64:64-i128:128-f80:128-n8:16:32:64-S128"
target triple = "x86_64-unknown-linux-gnu"

%struct.dtoa_alloc = type { i32, i32, ptr, [8 x ptr], [1 x double] }
%struct.Bigint = type { ptr, i32, i32, i32, i32, [1 x i32] }

; Function Attrs: nounwind uwtable
define internal void @Bfree(ptr noundef %dalloc, ptr noundef %v) #0 {
entry:
  %dalloc.addr = alloca ptr, align 8
  %v.addr = alloca ptr, align 8
  store ptr %dalloc, ptr %dalloc.addr, align 8
  store ptr %v, ptr %v.addr, align 8
  %0 = load ptr, ptr %v.addr, align 8
  %tobool = icmp ne ptr %0, null
  br i1 %tobool, label %if.then, label %if.end7

if.then:                                          ; preds = %entry
  %1 = load ptr, ptr %v.addr, align 8
  %k = getelementptr inbounds %struct.Bigint, ptr %1, i32 0, i32 1
  %2 = load i32, ptr %k, align 8
  %cmp = icmp sgt i32 %2, 7
  br i1 %cmp, label %if.then1, label %if.else

if.then1:                                         ; preds = %if.then
  %3 = load ptr, ptr %v.addr, align 8
  call void @free(ptr noundef %3) #9
  br label %if.end

if.else:                                          ; preds = %if.then
  %4 = load ptr, ptr %dalloc.addr, align 8
  %freelist = getelementptr inbounds %struct.dtoa_alloc, ptr %4, i32 0, i32 3
  %5 = load ptr, ptr %v.addr, align 8
  %k2 = getelementptr inbounds %struct.Bigint, ptr %5, i32 0, i32 1
  %6 = load i32, ptr %k2, align 8
  %idxprom = sext i32 %6 to i64
  %arrayidx = getelementptr inbounds [8 x ptr], ptr %freelist, i64 0, i64 %idxprom
  %7 = load ptr, ptr %arrayidx, align 8
  %8 = load ptr, ptr %v.addr, align 8
  %next = getelementptr inbounds %struct.Bigint, ptr %8, i32 0, i32 0
  store ptr %7, ptr %next, align 8
  %9 = load ptr, ptr %v.addr, align 8
  %10 = load ptr, ptr %dalloc.addr, align 8
  %freelist3 = getelementptr inbounds %struct.dtoa_alloc, ptr %10, i32 0, i32 3
  %11 = load ptr, ptr %v.addr, align 8
  %k4 = getelementptr inbounds %struct.Bigint, ptr %11, i32 0, i32 1
  %12 = load i32, ptr %k4, align 8
  %idxprom5 = sext i32 %12 to i64
  %arrayidx6 = getelementptr inbounds [8 x ptr], ptr %freelist3, i64 0, i64 %idxprom5
  store ptr %9, ptr %arrayidx6, align 8
  br label %if.end

if.end:                                           ; preds = %if.else, %if.then1
  br label %if.end7

if.end7:                                          ; preds = %if.end, %entry
  ret void
}

; Function Attrs: nounwind uwtable
define internal ptr @Balloc(ptr noundef %dalloc, i32 noundef %k) #0 {
entry:
  %dalloc.addr = alloca ptr, align 8
  %k.addr = alloca i32, align 4
  %x = alloca i32, align 4
  %rv = alloca ptr, align 8
  %len = alloca i32, align 4
  store ptr %dalloc, ptr %dalloc.addr, align 8
  store i32 %k, ptr %k.addr, align 4
  %0 = load i32, ptr %k.addr, align 4
  %cmp = icmp sle i32 %0, 7
  br i1 %cmp, label %land.lhs.true, label %if.else

land.lhs.true:                                    ; preds = %entry
  %1 = load ptr, ptr %dalloc.addr, align 8
  %freelist = getelementptr inbounds %struct.dtoa_alloc, ptr %1, i32 0, i32 3
  %2 = load i32, ptr %k.addr, align 4
  %idxprom = sext i32 %2 to i64
  %arrayidx = getelementptr inbounds [8 x ptr], ptr %freelist, i64 0, i64 %idxprom
  %3 = load ptr, ptr %arrayidx, align 8
  store ptr %3, ptr %rv, align 8
  %tobool = icmp ne ptr %3, null
  br i1 %tobool, label %if.then, label %if.else

if.then:                                          ; preds = %land.lhs.true
  %4 = load ptr, ptr %rv, align 8
  %next = getelementptr inbounds %struct.Bigint, ptr %4, i32 0, i32 0
  %5 = load ptr, ptr %next, align 8
  %6 = load ptr, ptr %dalloc.addr, align 8
  %freelist1 = getelementptr inbounds %struct.dtoa_alloc, ptr %6, i32 0, i32 3
  %7 = load i32, ptr %k.addr, align 4
  %idxprom2 = sext i32 %7 to i64
  %arrayidx3 = getelementptr inbounds [8 x ptr], ptr %freelist1, i64 0, i64 %idxprom2
  store ptr %5, ptr %arrayidx3, align 8
  br label %if.end22

if.else:                                          ; preds = %land.lhs.true, %entry
  %8 = load i32, ptr %k.addr, align 4
  %shl = shl i32 1, %8
  store i32 %shl, ptr %x, align 4
  %9 = load i32, ptr %x, align 4
  %sub = sub nsw i32 %9, 1
  %conv = sext i32 %sub to i64
  %mul = mul i64 %conv, 4
  %add = add i64 32, %mul
  %add4 = add i64 %add, 8
  %sub5 = sub i64 %add4, 1
  %div = udiv i64 %sub5, 8
  %conv6 = trunc i64 %div to i32
  store i32 %conv6, ptr %len, align 4
  %10 = load i32, ptr %k.addr, align 4
  %cmp7 = icmp sle i32 %10, 7
  br i1 %cmp7, label %land.lhs.true9, label %if.else18

land.lhs.true9:                                   ; preds = %if.else
  %11 = load ptr, ptr %dalloc.addr, align 8
  %pmem_next = getelementptr inbounds %struct.dtoa_alloc, ptr %11, i32 0, i32 2
  %12 = load ptr, ptr %pmem_next, align 8
  %13 = load ptr, ptr %dalloc.addr, align 8
  %private_mem = getelementptr inbounds %struct.dtoa_alloc, ptr %13, i32 0, i32 4
  %arraydecay = getelementptr inbounds [1 x double], ptr %private_mem, i64 0, i64 0
  %sub.ptr.lhs.cast = ptrtoint ptr %12 to i64
  %sub.ptr.rhs.cast = ptrtoint ptr %arraydecay to i64
  %sub.ptr.sub = sub i64 %sub.ptr.lhs.cast, %sub.ptr.rhs.cast
  %sub.ptr.div = sdiv exact i64 %sub.ptr.sub, 8
  %14 = load i32, ptr %len, align 4
  %conv10 = zext i32 %14 to i64
  %add11 = add nsw i64 %sub.ptr.div, %conv10
  %15 = load ptr, ptr %dalloc.addr, align 8
  %pmem_len = getelementptr inbounds %struct.dtoa_alloc, ptr %15, i32 0, i32 0
  %16 = load i32, ptr %pmem_len, align 8
  %conv12 = sext i32 %16 to i64
  %cmp13 = icmp sle i64 %add11, %conv12
  br i1 %cmp13, label %if.then15, label %if.else18

if.then15:                                        ; preds = %land.lhs.true9
  %17 = load ptr, ptr %dalloc.addr, align 8
  %pmem_next16 = getelementptr inbounds %struct.dtoa_alloc, ptr %17, i32 0, i32 2
  %18 = load ptr, ptr %pmem_next16, align 8
  store ptr %18, ptr %rv, align 8
  %19 = load i32, ptr %len, align 4
  %20 = load ptr, ptr %dalloc.addr, align 8
  %pmem_next17 = getelementptr inbounds %struct.dtoa_alloc, ptr %20, i32 0, i32 2
  %21 = load ptr, ptr %pmem_next17, align 8
  %idx.ext = zext i32 %19 to i64
  %add.ptr = getelementptr inbounds double, ptr %21, i64 %idx.ext
  store ptr %add.ptr, ptr %pmem_next17, align 8
  br label %if.end

if.else18:                                        ; preds = %land.lhs.true9, %if.else
  %22 = load i32, ptr %len, align 4
  %conv19 = zext i32 %22 to i64
  %mul20 = mul i64 %conv19, 8
  %call = call noalias ptr @malloc(i64 noundef %mul20) #11
  store ptr %call, ptr %rv, align 8
  %23 = load ptr, ptr %dalloc.addr, align 8
  %used_heap = getelementptr inbounds %struct.dtoa_alloc, ptr %23, i32 0, i32 1
  store i32 1, ptr %used_heap, align 4
  br label %if.end

if.end:                                           ; preds = %if.else18, %if.then15
  %24 = load i32, ptr %k.addr, align 4
  %25 = load ptr, ptr %rv, align 8
  %k21 = getelementptr inbounds %struct.Bigint, ptr %25, i32 0, i32 1
  store i32 %24, ptr %k21, align 8
  %26 = load i32, ptr %x, align 4
  %27 = load ptr, ptr %rv, align 8
  %maxwds = getelementptr inbounds %struct.Bigint, ptr %27, i32 0, i32 2
  store i32 %26, ptr %maxwds, align 4
  br label %if.end22

if.end22:                                         ; preds = %if.end, %if.then
  %28 = load ptr, ptr %rv, align 8
  %wds = getelementptr inbounds %struct.Bigint, ptr %28, i32 0, i32 4
  store i32 0, ptr %wds, align 4
  %29 = load ptr, ptr %rv, align 8
  %sign = getelementptr inbounds %struct.Bigint, ptr %29, i32 0, i32 3
  store i32 0, ptr %sign, align 8
  %30 = load ptr, ptr %rv, align 8
  ret ptr %30
}

; Function Attrs: nounwind uwtable
define internal ptr @lshift(ptr noundef %dalloc, ptr noundef %b, i32 noundef %k) #0 {
entry:
  %dalloc.addr = alloca ptr, align 8
  %b.addr = alloca ptr, align 8
  %k.addr = alloca i32, align 4
  %i = alloca i32, align 4
  %k1 = alloca i32, align 4
  %n = alloca i32, align 4
  %n1 = alloca i32, align 4
  %b1 = alloca ptr, align 8
  %x = alloca ptr, align 8
  %x1 = alloca ptr, align 8
  %xe = alloca ptr, align 8
  %z = alloca i32, align 4
  store ptr %dalloc, ptr %dalloc.addr, align 8
  store ptr %b, ptr %b.addr, align 8
  store i32 %k, ptr %k.addr, align 4
  %0 = load i32, ptr %k.addr, align 4
  %shr = ashr i32 %0, 5
  store i32 %shr, ptr %n, align 4
  %1 = load ptr, ptr %b.addr, align 8
  %k2 = getelementptr inbounds %struct.Bigint, ptr %1, i32 0, i32 1
  %2 = load i32, ptr %k2, align 8
  store i32 %2, ptr %k1, align 4
  %3 = load i32, ptr %n, align 4
  %4 = load ptr, ptr %b.addr, align 8
  %wds = getelementptr inbounds %struct.Bigint, ptr %4, i32 0, i32 4
  %5 = load i32, ptr %wds, align 4
  %add = add nsw i32 %3, %5
  %add3 = add nsw i32 %add, 1
  store i32 %add3, ptr %n1, align 4
  %6 = load ptr, ptr %b.addr, align 8
  %maxwds = getelementptr inbounds %struct.Bigint, ptr %6, i32 0, i32 2
  %7 = load i32, ptr %maxwds, align 4
  store i32 %7, ptr %i, align 4
  br label %for.cond

for.cond:                                         ; preds = %for.inc, %entry
  %8 = load i32, ptr %n1, align 4
  %9 = load i32, ptr %i, align 4
  %cmp = icmp sgt i32 %8, %9
  br i1 %cmp, label %for.body, label %for.end

for.body:                                         ; preds = %for.cond
  %10 = load i32, ptr %k1, align 4
  %inc = add nsw i32 %10, 1
  store i32 %inc, ptr %k1, align 4
  br label %for.inc

for.inc:                                          ; preds = %for.body
  %11 = load i32, ptr %i, align 4
  %shl = shl i32 %11, 1
  store i32 %shl, ptr %i, align 4
  br label %for.cond, !llvm.loop !32

for.end:                                          ; preds = %for.cond
  %12 = load ptr, ptr %dalloc.addr, align 8
  %13 = load i32, ptr %k1, align 4
  %call = call ptr @Balloc(ptr noundef %12, i32 noundef %13)
  store ptr %call, ptr %b1, align 8
  %14 = load ptr, ptr %b1, align 8
  %x4 = getelementptr inbounds %struct.Bigint, ptr %14, i32 0, i32 5
  %arraydecay = getelementptr inbounds [1 x i32], ptr %x4, i64 0, i64 0
  store ptr %arraydecay, ptr %x1, align 8
  store i32 0, ptr %i, align 4
  br label %for.cond5

for.cond5:                                        ; preds = %for.inc8, %for.end
  %15 = load i32, ptr %i, align 4
  %16 = load i32, ptr %n, align 4
  %cmp6 = icmp slt i32 %15, %16
  br i1 %cmp6, label %for.body7, label %for.end10

for.body7:                                        ; preds = %for.cond5
  %17 = load ptr, ptr %x1, align 8
  %incdec.ptr = getelementptr inbounds i32, ptr %17, i32 1
  store ptr %incdec.ptr, ptr %x1, align 8
  store i32 0, ptr %17, align 4
  br label %for.inc8

for.inc8:                                         ; preds = %for.body7
  %18 = load i32, ptr %i, align 4
  %inc9 = add nsw i32 %18, 1
  store i32 %inc9, ptr %i, align 4
  br label %for.cond5, !llvm.loop !33

for.end10:                                        ; preds = %for.cond5
  %19 = load ptr, ptr %b.addr, align 8
  %x11 = getelementptr inbounds %struct.Bigint, ptr %19, i32 0, i32 5
  %arraydecay12 = getelementptr inbounds [1 x i32], ptr %x11, i64 0, i64 0
  store ptr %arraydecay12, ptr %x, align 8
  %20 = load ptr, ptr %x, align 8
  %21 = load ptr, ptr %b.addr, align 8
  %wds13 = getelementptr inbounds %struct.Bigint, ptr %21, i32 0, i32 4
  %22 = load i32, ptr %wds13, align 4
  %idx.ext = sext i32 %22 to i64
  %add.ptr = getelementptr inbounds i32, ptr %20, i64 %idx.ext
  store ptr %add.ptr, ptr %xe, align 8
  %23 = load i32, ptr %k.addr, align 4
  %and = and i32 %23, 31
  store i32 %and, ptr %k.addr, align 4
  %tobool = icmp ne i32 %and, 0
  br i1 %tobool, label %if.then, label %if.else

if.then:                                          ; preds = %for.end10
  %24 = load i32, ptr %k.addr, align 4
  %sub = sub nsw i32 32, %24
  store i32 %sub, ptr %k1, align 4
  store i32 0, ptr %z, align 4
  br label %do.body

do.body:                                          ; preds = %do.cond, %if.then
  %25 = load ptr, ptr %x, align 8
  %26 = load i32, ptr %25, align 4
  %27 = load i32, ptr %k.addr, align 4
  %shl14 = shl i32 %26, %27
  %28 = load i32, ptr %z, align 4
  %or = or i32 %shl14, %28
  %29 = load ptr, ptr %x1, align 8
  %incdec.ptr15 = getelementptr inbounds i32, ptr %29, i32 1
  store ptr %incdec.ptr15, ptr %x1, align 8
  store i32 %or, ptr %29, align 4
  %30 = load ptr, ptr %x, align 8
  %incdec.ptr16 = getelementptr inbounds i32, ptr %30, i32 1
  store ptr %incdec.ptr16, ptr %x, align 8
  %31 = load i32, ptr %30, align 4
  %32 = load i32, ptr %k1, align 4
  %shr17 = lshr i32 %31, %32
  store i32 %shr17, ptr %z, align 4
  br label %do.cond

do.cond:                                          ; preds = %do.body
  %33 = load ptr, ptr %x, align 8
  %34 = load ptr, ptr %xe, align 8
  %cmp18 = icmp ult ptr %33, %34
  br i1 %cmp18, label %do.body, label %do.end, !llvm.loop !34

do.end:                                           ; preds = %do.cond
  %35 = load i32, ptr %z, align 4
  %36 = load ptr, ptr %x1, align 8
  store i32 %35, ptr %36, align 4
  %tobool19 = icmp ne i32 %35, 0
  br i1 %tobool19, label %if.then20, label %if.end

if.then20:                                        ; preds = %do.end
  %37 = load i32, ptr %n1, align 4
  %inc21 = add nsw i32 %37, 1
  store i32 %inc21, ptr %n1, align 4
  br label %if.end

if.end:                                           ; preds = %if.then20, %do.end
  br label %if.end28

if.else:                                          ; preds = %for.end10
  br label %do.body22

do.body22:                                        ; preds = %do.cond25, %if.else
  %38 = load ptr, ptr %x, align 8
  %incdec.ptr23 = getelementptr inbounds i32, ptr %38, i32 1
  store ptr %incdec.ptr23, ptr %x, align 8
  %39 = load i32, ptr %38, align 4
  %40 = load ptr, ptr %x1, align 8
  %incdec.ptr24 = getelementptr inbounds i32, ptr %40, i32 1
  store ptr %incdec.ptr24, ptr %x1, align 8
  store i32 %39, ptr %40, align 4
  br label %do.cond25

do.cond25:                                        ; preds = %do.body22
  %41 = load ptr, ptr %x, align 8
  %42 = load ptr, ptr %xe, align 8
  %cmp26 = icmp ult ptr %41, %42
  br i1 %cmp26, label %do.body22, label %do.end27, !llvm.loop !35

do.end27:                                         ; preds = %do.cond25
  br label %if.end28

if.end28:                                         ; preds = %do.end27, %if.end
  %43 = load i32, ptr %n1, align 4
  %sub29 = sub nsw i32 %43, 1
  %44 = load ptr, ptr %b1, align 8
  %wds30 = getelementptr inbounds %struct.Bigint, ptr %44, i32 0, i32 4
  store i32 %sub29, ptr %wds30, align 4
  %45 = load ptr, ptr %dalloc.addr, align 8
  %46 = load ptr, ptr %b.addr, align 8
  call void @Bfree(ptr noundef %45, ptr noundef %46)
  %47 = load ptr, ptr %b1, align 8
  ret ptr %47
}