; Function Attrs: nounwind uwtable
define internal fastcc ptr @lshift(ptr noundef %dalloc, ptr noundef %b, i32 noundef range(i32 -2147483593, -2147483648) %k) unnamed_addr #1 {
entry:
  %shr = ashr i32 %k, 5
  %k2 = getelementptr inbounds nuw i8, ptr %b, i64 8
  %0 = load i32, ptr %k2, align 8
  %wds = getelementptr inbounds nuw i8, ptr %b, i64 20
  %1 = load i32, ptr %wds, align 4
  %add = add nsw i32 %1, %shr
  %maxwds = getelementptr inbounds nuw i8, ptr %b, i64 12
  %2 = load i32, ptr %maxwds, align 4
  %cmp.not37 = icmp slt i32 %add, %2
  br i1 %cmp.not37, label %for.end, label %for.body

for.body:                                         ; preds = %entry, %for.body
  %i.039 = phi i32 [ %shl, %for.body ], [ %2, %entry ]
  %k1.038 = phi i32 [ %inc, %for.body ], [ %0, %entry ]
  %inc = add nsw i32 %k1.038, 1
  %shl = shl i32 %i.039, 1
  %cmp.not = icmp slt i32 %add, %shl
  br i1 %cmp.not, label %for.end, label %for.body, !llvm.loop !35

for.end:                                          ; preds = %for.body, %entry
  %k1.0.lcssa = phi i32 [ %0, %entry ], [ %inc, %for.body ]
  %cmp.i = icmp slt i32 %k1.0.lcssa, 8
  br i1 %cmp.i, label %land.lhs.true.i, label %if.else.i

land.lhs.true.i:                                  ; preds = %for.end
  %freelist.i = getelementptr inbounds nuw i8, ptr %dalloc, i64 16
  %idxprom.i = sext i32 %k1.0.lcssa to i64
  %arrayidx.i = getelementptr inbounds [8 x ptr], ptr %freelist.i, i64 0, i64 %idxprom.i
  %3 = load ptr, ptr %arrayidx.i, align 8
  %tobool.not.i = icmp eq ptr %3, null
  br i1 %tobool.not.i, label %land.lhs.true9.i, label %if.then.i

if.then.i:                                        ; preds = %land.lhs.true.i
  %4 = load ptr, ptr %3, align 8
  store ptr %4, ptr %arrayidx.i, align 8
  br label %Balloc.exit

if.else.i:                                        ; preds = %for.end
  %shl.i = shl nuw i32 1, %k1.0.lcssa
  %sub.i = add nsw i32 %shl.i, -1
  %conv.i = zext nneg i32 %sub.i to i64
  %mul.i = shl nuw nsw i64 %conv.i, 2
  %sub5.i = add nuw nsw i64 %mul.i, 39
  br label %if.else18.i

land.lhs.true9.i:                                 ; preds = %land.lhs.true.i
  %shl22.i = shl nuw nsw i32 1, %k1.0.lcssa
  %sub23.i = add nsw i32 %shl22.i, -1
  %conv24.i = zext nneg i32 %sub23.i to i64
  %mul25.i = shl nuw nsw i64 %conv24.i, 2
  %sub526.i = add nuw nsw i64 %mul25.i, 39
  %div21.i = lshr i64 %sub526.i, 3
  %pmem_next.i = getelementptr inbounds nuw i8, ptr %dalloc, i64 8
  %5 = load ptr, ptr %pmem_next.i, align 8
  %private_mem.i = getelementptr inbounds nuw i8, ptr %dalloc, i64 80
  %sub.ptr.lhs.cast.i = ptrtoint ptr %5 to i64
  %sub.ptr.rhs.cast.i = ptrtoint ptr %private_mem.i to i64
  %sub.ptr.sub.i = sub i64 %sub.ptr.lhs.cast.i, %sub.ptr.rhs.cast.i
  %sub.ptr.div.i = ashr exact i64 %sub.ptr.sub.i, 3
  %add11.i = add nsw i64 %sub.ptr.div.i, %div21.i
  %6 = load i32, ptr %dalloc, align 8
  %conv12.i = sext i32 %6 to i64
  %cmp13.not.i = icmp sgt i64 %add11.i, %conv12.i
  br i1 %cmp13.not.i, label %if.else18.i, label %if.then15.i

if.then15.i:                                      ; preds = %land.lhs.true9.i
  %add.ptr.i = getelementptr inbounds nuw double, ptr %5, i64 %div21.i
  store ptr %add.ptr.i, ptr %pmem_next.i, align 8
  br label %if.end.i

if.else18.i:                                      ; preds = %land.lhs.true9.i, %if.else.i
  %sub531.i = phi i64 [ %sub526.i, %land.lhs.true9.i ], [ %sub5.i, %if.else.i ]
  %shl28.i = phi i32 [ %shl22.i, %land.lhs.true9.i ], [ %shl.i, %if.else.i ]
  %mul20.i = and i64 %sub531.i, 34359738360
  %call.i = tail call noalias ptr @malloc(i64 noundef %mul20.i) #19
  %used_heap.i = getelementptr inbounds nuw i8, ptr %dalloc, i64 4
  store i32 1, ptr %used_heap.i, align 4
  br label %if.end.i

if.end.i:                                         ; preds = %if.else18.i, %if.then15.i
  %shl27.i = phi i32 [ %shl22.i, %if.then15.i ], [ %shl28.i, %if.else18.i ]
  %rv.1.i = phi ptr [ %5, %if.then15.i ], [ %call.i, %if.else18.i ]
  %k21.i = getelementptr inbounds nuw i8, ptr %rv.1.i, i64 8
  store i32 %k1.0.lcssa, ptr %k21.i, align 8
  %maxwds.i = getelementptr inbounds nuw i8, ptr %rv.1.i, i64 12
  store i32 %shl27.i, ptr %maxwds.i, align 4
  br label %Balloc.exit

Balloc.exit:                                      ; preds = %if.then.i, %if.end.i
  %rv.0.i = phi ptr [ %3, %if.then.i ], [ %rv.1.i, %if.end.i ]
  %wds.i = getelementptr inbounds nuw i8, ptr %rv.0.i, i64 20
  store i32 0, ptr %wds.i, align 4
  %sign.i = getelementptr inbounds nuw i8, ptr %rv.0.i, i64 16
  store i32 0, ptr %sign.i, align 8
  %x4 = getelementptr i8, ptr %rv.0.i, i64 24
  %cmp640 = icmp sgt i32 %shr, 0
  br i1 %cmp640, label %for.body7.preheader, label %for.end10

for.body7.preheader:                              ; preds = %Balloc.exit
  %7 = zext nneg i32 %shr to i64
  %8 = shl nuw nsw i64 %7, 2
  tail call void @llvm.memset.p0.i64(ptr align 4 %x4, i8 0, i64 %8, i1 false)
  %9 = add nsw i32 %shr, -1
  %10 = zext nneg i32 %9 to i64
  %11 = shl nuw nsw i64 %10, 2
  %12 = getelementptr i8, ptr %rv.0.i, i64 %11
  %scevgep = getelementptr i8, ptr %12, i64 28
  br label %for.end10

for.end10:                                        ; preds = %for.body7.preheader, %Balloc.exit
  %x1.0.lcssa = phi ptr [ %x4, %Balloc.exit ], [ %scevgep, %for.body7.preheader ]
  %x11 = getelementptr inbounds nuw i8, ptr %b, i64 24
  %13 = load i32, ptr %wds, align 4
  %idx.ext = sext i32 %13 to i64
  %add.ptr = getelementptr inbounds i32, ptr %x11, i64 %idx.ext
  %and = and i32 %k, 31
  %tobool.not = icmp eq i32 %and, 0
  br i1 %tobool.not, label %do.body22, label %if.then

if.then:                                          ; preds = %for.end10
  %sub = sub nuw nsw i32 32, %and
  br label %do.body

do.body:                                          ; preds = %do.body, %if.then
  %x.0 = phi ptr [ %x11, %if.then ], [ %incdec.ptr16, %do.body ]
  %x1.1 = phi ptr [ %x1.0.lcssa, %if.then ], [ %incdec.ptr15, %do.body ]
  %z.0 = phi i32 [ 0, %if.then ], [ %shr17, %do.body ]
  %14 = load i32, ptr %x.0, align 4
  %shl14 = shl i32 %14, %and
  %or = or i32 %shl14, %z.0
  %incdec.ptr15 = getelementptr inbounds nuw i8, ptr %x1.1, i64 4
  store i32 %or, ptr %x1.1, align 4
  %incdec.ptr16 = getelementptr inbounds nuw i8, ptr %x.0, i64 4
  %15 = load i32, ptr %x.0, align 4
  %shr17 = lshr i32 %15, %sub
  %cmp18 = icmp ult ptr %incdec.ptr16, %add.ptr
  br i1 %cmp18, label %do.body, label %do.end, !llvm.loop !36

do.end:                                           ; preds = %do.body
  store i32 %shr17, ptr %incdec.ptr15, align 4
  %tobool19.not = icmp ne i32 %shr17, 0
  %16 = zext i1 %tobool19.not to i32
  %spec.select = add nsw i32 %add, %16
  br label %if.end28

do.body22:                                        ; preds = %for.end10, %do.body22
  %x.1 = phi ptr [ %incdec.ptr23, %do.body22 ], [ %x11, %for.end10 ]
  %x1.2 = phi ptr [ %incdec.ptr24, %do.body22 ], [ %x1.0.lcssa, %for.end10 ]
  %incdec.ptr23 = getelementptr inbounds nuw i8, ptr %x.1, i64 4
  %17 = load i32, ptr %x.1, align 4
  %incdec.ptr24 = getelementptr inbounds nuw i8, ptr %x1.2, i64 4
  store i32 %17, ptr %x1.2, align 4
  %cmp26 = icmp ult ptr %incdec.ptr23, %add.ptr
  br i1 %cmp26, label %do.body22, label %if.end28, !llvm.loop !37

if.end28:                                         ; preds = %do.body22, %do.end
  %n1.0 = phi i32 [ %spec.select, %do.end ], [ %add, %do.body22 ]
  store i32 %n1.0, ptr %wds.i, align 4
  %tobool.not.i30 = icmp eq ptr %b, null
  br i1 %tobool.not.i30, label %Bfree.exit, label %if.then.i31

if.then.i31:                                      ; preds = %if.end28
  %18 = load i32, ptr %k2, align 8
  %cmp.i32 = icmp sgt i32 %18, 7
  br i1 %cmp.i32, label %if.then1.i, label %if.else.i33

if.then1.i:                                       ; preds = %if.then.i31
  tail call void @free(ptr noundef nonnull %b) #17
  br label %Bfree.exit

if.else.i33:                                      ; preds = %if.then.i31
  %freelist.i34 = getelementptr inbounds nuw i8, ptr %dalloc, i64 16
  %idxprom.i35 = sext i32 %18 to i64
  %arrayidx.i36 = getelementptr inbounds [8 x ptr], ptr %freelist.i34, i64 0, i64 %idxprom.i35
  %19 = load ptr, ptr %arrayidx.i36, align 8
  store ptr %19, ptr %b, align 8
  store ptr %b, ptr %arrayidx.i36, align 8
  br label %Bfree.exit

Bfree.exit:                                       ; preds = %if.end28, %if.then1.i, %if.else.i33
  ret ptr %rv.0.i
}